target datalayout = "e-m:e-p270:32:32-p271:32:32-p272:64:64-i64:64-i128:128-f80:128-n8:16:32:64-S128"
target triple = "x86_64-pc-linux-gnu"

%struct.ident_t = type { i32, i32, i32, i32, ptr }

@1 = private unnamed_addr constant %struct.ident_t { i32 0, i32 514, i32 0, i32 22, ptr @0 }, align 8
@2 = private unnamed_addr constant %struct.ident_t { i32 0, i32 66, i32 0, i32 22, ptr @0 }, align 8

; Function Attrs: nounwind uwtable
define i32 @getBitMaskParity(i64 noundef %0) #0 {
  %2 = alloca i64, align 8
  %3 = alloca i32, align 4
  store i64 %0, ptr %2, align 8, !tbaa !4
  call void @llvm.lifetime.start.p0(i64 4, ptr %3) #3
  store i32 0, ptr %3, align 4, !tbaa !8
  br label %4

4:                                                ; preds = %7, %1
  %5 = load i64, ptr %2, align 8, !tbaa !4
  %6 = icmp ne i64 %5, 0
  br i1 %6, label %7, label %16

7:                                                ; preds = %4
  %8 = load i32, ptr %3, align 4, !tbaa !8
  %9 = icmp ne i32 %8, 0
  %10 = xor i1 %9, true
  %11 = zext i1 %10 to i32
  store i32 %11, ptr %3, align 4, !tbaa !8
  %12 = load i64, ptr %2, align 8, !tbaa !4
  %13 = load i64, ptr %2, align 8, !tbaa !4
  %14 = sub nsw i64 %13, 1
  %15 = and i64 %12, %14
  store i64 %15, ptr %2, align 8, !tbaa !4
  br label %4

16:                                               ; preds = %4
  %17 = load i32, ptr %3, align 4, !tbaa !8
  call void @llvm.lifetime.end.p0(i64 4, ptr %3) #3
  ret i32 %17
}

; Function Attrs: alwaysinline norecurse nounwind uwtable
define internal void @statevec_multiControlledMultiRotateZ.omp_outlined(ptr noalias noundef %0, ptr noalias noundef %1, ptr noundef nonnull align 8 dereferenceable(8) %2, ptr noundef nonnull align 8 dereferenceable(8) %3, ptr noundef nonnull align 8 dereferenceable(8) %4, ptr noundef nonnull align 8 dereferenceable(8) %5, ptr noundef nonnull align 8 dereferenceable(8) %6, ptr noundef nonnull align 8 dereferenceable(8) %7, ptr noundef nonnull align 8 dereferenceable(8) %8, ptr noundef nonnull align 8 dereferenceable(8) %9) #2 {
  %11 = alloca ptr, align 8
  %12 = alloca ptr, align 8
  %13 = alloca ptr, align 8
  %14 = alloca ptr, align 8
  %15 = alloca ptr, align 8
  %16 = alloca ptr, align 8
  %17 = alloca ptr, align 8
  %18 = alloca ptr, align 8
  %19 = alloca ptr, align 8
  %20 = alloca ptr, align 8
  %21 = alloca i64, align 8
  %22 = alloca i32, align 4
  %23 = alloca double, align 8
  %24 = alloca double, align 8
  %25 = alloca i64, align 8
  %26 = alloca i64, align 8
  %27 = alloca i64, align 8
  %28 = alloca i64, align 8
  %29 = alloca i64, align 8
  %30 = alloca i64, align 8
  %31 = alloca i64, align 8
  %32 = alloca i32, align 4
  %33 = alloca i64, align 8
  store ptr %0, ptr %11, align 8, !tbaa !19
  store ptr %1, ptr %12, align 8, !tbaa !19
  store ptr %2, ptr %13, align 8, !tbaa !21
  store ptr %3, ptr %14, align 8, !tbaa !33
  store ptr %4, ptr %15, align 8, !tbaa !33
  store ptr %5, ptr %16, align 8, !tbaa !21
  store ptr %6, ptr %17, align 8, !tbaa !21
  store ptr %7, ptr %18, align 8, !tbaa !21
  store ptr %8, ptr %19, align 8, !tbaa !25
  store ptr %9, ptr %20, align 8, !tbaa !25
  %34 = load ptr, ptr %13, align 8, !tbaa !21
  %35 = load ptr, ptr %14, align 8, !tbaa !33
  %36 = load ptr, ptr %15, align 8, !tbaa !33
  %37 = load ptr, ptr %16, align 8, !tbaa !21
  %38 = load ptr, ptr %17, align 8, !tbaa !21
  %39 = load ptr, ptr %18, align 8, !tbaa !21
  %40 = load ptr, ptr %19, align 8, !tbaa !25
  %41 = load ptr, ptr %20, align 8, !tbaa !25
  call void @llvm.lifetime.start.p0(i64 8, ptr %21) #3
  call void @llvm.lifetime.start.p0(i64 4, ptr %22) #3
  call void @llvm.lifetime.start.p0(i64 8, ptr %23) #3
  call void @llvm.lifetime.start.p0(i64 8, ptr %24) #3
  call void @llvm.lifetime.start.p0(i64 8, ptr %25) #3
  call void @llvm.lifetime.start.p0(i64 8, ptr %26) #3
  %42 = load i64, ptr %34, align 8, !tbaa !4
  store i64 %42, ptr %26, align 8, !tbaa !4
  call void @llvm.lifetime.start.p0(i64 8, ptr %27) #3
  %43 = load i64, ptr %26, align 8, !tbaa !4
  %44 = sub nsw i64 %43, 0
  %45 = sdiv i64 %44, 1
  %46 = sub nsw i64 %45, 1
  store i64 %46, ptr %27, align 8, !tbaa !4
  call void @llvm.lifetime.start.p0(i64 8, ptr %28) #3
  store i64 0, ptr %28, align 8, !tbaa !4
  call void @llvm.lifetime.end.p0(i64 8, ptr %28) #3
  %47 = load i64, ptr %26, align 8, !tbaa !4
  %48 = icmp slt i64 0, %47
  br i1 %48, label %49, label %132

49:                                               ; preds = %10
  call void @llvm.lifetime.start.p0(i64 8, ptr %29) #3
  store i64 0, ptr %29, align 8, !tbaa !4
  call void @llvm.lifetime.start.p0(i64 8, ptr %30) #3
  %50 = load i64, ptr %27, align 8, !tbaa !4
  store i64 %50, ptr %30, align 8, !tbaa !4
  call void @llvm.lifetime.start.p0(i64 8, ptr %31) #3
  store i64 1, ptr %31, align 8, !tbaa !4
  call void @llvm.lifetime.start.p0(i64 4, ptr %32) #3
  store i32 0, ptr %32, align 4, !tbaa !8
  call void @llvm.lifetime.start.p0(i64 8, ptr %33) #3
  %51 = load ptr, ptr %11, align 8
  %52 = load i32, ptr %51, align 4, !tbaa !8
  call void @__kmpc_for_static_init_8(ptr @1, i32 %52, i32 34, ptr %32, ptr %29, ptr %30, ptr %31, i64 1, i64 1)
  %53 = load i64, ptr %30, align 8, !tbaa !4
  %54 = load i64, ptr %27, align 8, !tbaa !4
  %55 = icmp sgt i64 %53, %54
  br i1 %55, label %56, label %58

56:                                               ; preds = %49
  %57 = load i64, ptr %27, align 8, !tbaa !4
  br label %60

58:                                               ; preds = %49
  %59 = load i64, ptr %30, align 8, !tbaa !4
  br label %60

60:                                               ; preds = %58, %56
  %61 = phi i64 [ %57, %56 ], [ %59, %58 ]
  store i64 %61, ptr %30, align 8, !tbaa !4
  %62 = load i64, ptr %29, align 8, !tbaa !4
  store i64 %62, ptr %25, align 8, !tbaa !4
  br label %63

63:                                               ; preds = %125, %60
  %64 = load i64, ptr %25, align 8, !tbaa !4
  %65 = load i64, ptr %30, align 8, !tbaa !4
  %66 = icmp sle i64 %64, %65
  br i1 %66, label %68, label %67

67:                                               ; preds = %63
  br label %128

68:                                               ; preds = %63
  %69 = load i64, ptr %25, align 8, !tbaa !4
  %70 = mul nsw i64 %69, 1
  %71 = add nsw i64 0, %70
  store i64 %71, ptr %33, align 8, !tbaa !4
  %72 = load ptr, ptr %35, align 8, !tbaa !25
  %73 = load i64, ptr %33, align 8, !tbaa !4
  %74 = getelementptr inbounds double, ptr %72, i64 %73
  %75 = load double, ptr %74, align 8, !tbaa !10
  store double %75, ptr %23, align 8, !tbaa !10
  %76 = load ptr, ptr %36, align 8, !tbaa !25
  %77 = load i64, ptr %33, align 8, !tbaa !4
  %78 = getelementptr inbounds double, ptr %76, i64 %77
  %79 = load double, ptr %78, align 8, !tbaa !10
  store double %79, ptr %24, align 8, !tbaa !10
  %80 = load i64, ptr %33, align 8, !tbaa !4
  %81 = load i64, ptr %37, align 8, !tbaa !4
  %82 = add nsw i64 %80, %81
  store i64 %82, ptr %21, align 8, !tbaa !4
  %83 = load i64, ptr %38, align 8, !tbaa !4
  %84 = icmp ne i64 %83, 0
  br i1 %84, label %85, label %92

85:                                               ; preds = %68
  %86 = load i64, ptr %38, align 8, !tbaa !4
  %87 = load i64, ptr %21, align 8, !tbaa !4
  %88 = and i64 %86, %87
  %89 = load i64, ptr %38, align 8, !tbaa !4
  %90 = icmp ne i64 %88, %89
  br i1 %90, label %91, label %92

91:                                               ; preds = %85
  br label %124

92:                                               ; preds = %85, %68
  %93 = load i64, ptr %39, align 8, !tbaa !4
  %94 = load i64, ptr %21, align 8, !tbaa !4
  %95 = and i64 %93, %94
  %96 = call i32 @getBitMaskParity(i64 noundef %95)
  %97 = mul nsw i32 2, %96
  %98 = sub nsw i32 1, %97
  store i32 %98, ptr %22, align 4, !tbaa !8
  %99 = load double, ptr %40, align 8, !tbaa !10
  %100 = load double, ptr %23, align 8, !tbaa !10
  %101 = load i32, ptr %22, align 4, !tbaa !8
  %102 = sitofp i32 %101 to double
  %103 = load double, ptr %41, align 8, !tbaa !10
  %104 = fmul double %102, %103
  %105 = load double, ptr %24, align 8, !tbaa !10
  %106 = fmul double %104, %105
  %107 = call double @llvm.fmuladd.f64(double %99, double %100, double %106)
  %108 = load ptr, ptr %35, align 8, !tbaa !25
  %109 = load i64, ptr %33, align 8, !tbaa !4
  %110 = getelementptr inbounds double, ptr %108, i64 %109
  store double %107, ptr %110, align 8, !tbaa !10
  %111 = load i32, ptr %22, align 4, !tbaa !8
  %112 = sub nsw i32 0, %111
  %113 = sitofp i32 %112 to double
  %114 = load double, ptr %41, align 8, !tbaa !10
  %115 = fmul double %113, %114
  %116 = load double, ptr %23, align 8, !tbaa !10
  %117 = load double, ptr %40, align 8, !tbaa !10
  %118 = load double, ptr %24, align 8, !tbaa !10
  %119 = fmul double %117, %118
  %120 = call double @llvm.fmuladd.f64(double %115, double %116, double %119)
  %121 = load ptr, ptr %36, align 8, !tbaa !25
  %122 = load i64, ptr %33, align 8, !tbaa !4
  %123 = getelementptr inbounds double, ptr %121, i64 %122
  store double %120, ptr %123, align 8, !tbaa !10
  br label %124

124:                                              ; preds = %92, %91
  br label %125

125:                                              ; preds = %124
  %126 = load i64, ptr %25, align 8, !tbaa !4
  %127 = add nsw i64 %126, 1
  store i64 %127, ptr %25, align 8, !tbaa !4
  br label %63

128:                                              ; preds = %67
  br label %129

129:                                              ; preds = %128
  %130 = load ptr, ptr %11, align 8
  %131 = load i32, ptr %130, align 4, !tbaa !8
  call void @__kmpc_for_static_fini(ptr @1, i32 %131)
  call void @llvm.lifetime.end.p0(i64 8, ptr %33) #3
  call void @llvm.lifetime.end.p0(i64 4, ptr %32) #3
  call void @llvm.lifetime.end.p0(i64 8, ptr %31) #3
  call void @llvm.lifetime.end.p0(i64 8, ptr %30) #3
  call void @llvm.lifetime.end.p0(i64 8, ptr %29) #3
  br label %132

132:                                              ; preds = %129, %10
  call void @llvm.lifetime.end.p0(i64 8, ptr %27) #3
  call void @llvm.lifetime.end.p0(i64 8, ptr %26) #3
  call void @llvm.lifetime.end.p0(i64 8, ptr %25) #3
  %133 = load ptr, ptr %11, align 8
  %134 = load i32, ptr %133, align 4, !tbaa !8
  call void @__kmpc_barrier(ptr @2, i32 %134)
  call void @llvm.lifetime.end.p0(i64 8, ptr %24) #3
  call void @llvm.lifetime.end.p0(i64 8, ptr %23) #3
  call void @llvm.lifetime.end.p0(i64 4, ptr %22) #3
  call void @llvm.lifetime.end.p0(i64 8, ptr %21) #3
  ret void
}