; Function Attrs: alwaysinline norecurse nounwind uwtable
define internal void @statevec_multiControlledMultiRotateZ.omp_outlined(ptr noalias noundef readonly captures(none) %0, ptr noalias readnone captures(none) %1, ptr noundef nonnull readonly align 8 captures(none) dereferenceable(8) %2, ptr noundef nonnull readonly align 8 captures(none) dereferenceable(8) %3, ptr noundef nonnull readonly align 8 captures(none) dereferenceable(8) %4, ptr noundef nonnull readonly align 8 captures(none) dereferenceable(8) %5, ptr noundef nonnull readonly align 8 captures(none) dereferenceable(8) %6, ptr noundef nonnull readonly align 8 captures(none) dereferenceable(8) %7, ptr noundef nonnull readonly align 8 captures(none) dereferenceable(8) %8, ptr noundef nonnull readonly align 8 captures(none) dereferenceable(8) %9) #3 {
  %11 = alloca i64, align 8
  %12 = alloca i64, align 8
  %13 = alloca i64, align 8
  %14 = alloca i32, align 4
  %15 = load i64, ptr %2, align 8, !tbaa !16
  %16 = icmp sgt i64 %15, 0
  %.pre = load i32, ptr %0, align 4, !tbaa !18
  br i1 %16, label %17, label %78

17:                                               ; preds = %10
  %18 = add nsw i64 %15, -1
  call void @llvm.lifetime.start.p0(i64 8, ptr nonnull %11) #4
  store i64 0, ptr %11, align 8, !tbaa !16
  call void @llvm.lifetime.start.p0(i64 8, ptr nonnull %12) #4
  store i64 %18, ptr %12, align 8, !tbaa !16
  call void @llvm.lifetime.start.p0(i64 8, ptr nonnull %13) #4
  store i64 1, ptr %13, align 8, !tbaa !16
  call void @llvm.lifetime.start.p0(i64 4, ptr nonnull %14) #4
  store i32 0, ptr %14, align 4, !tbaa !18
  call void @__kmpc_for_static_init_8(ptr nonnull @1, i32 %.pre, i32 34, ptr nonnull %14, ptr nonnull %11, ptr nonnull %12, ptr nonnull %13, i64 1, i64 1)
  %19 = load i64, ptr %12, align 8, !tbaa !16
  %20 = call i64 @llvm.smin.i64(i64 %19, i64 %18)
  store i64 %20, ptr %12, align 8, !tbaa !16
  %21 = load i64, ptr %11, align 8, !tbaa !16
  %.not34 = icmp sgt i64 %21, %20
  br i1 %.not34, label %._crit_edge, label %.lr.ph

.lr.ph:                                           ; preds = %17
  %22 = load ptr, ptr %3, align 8, !tbaa !26
  %23 = load ptr, ptr %4, align 8, !tbaa !26
  %24 = load i64, ptr %5, align 8, !tbaa !16
  %25 = load i64, ptr %6, align 8, !tbaa !16
  %.fr = freeze i64 %25
  %.not32 = icmp eq i64 %.fr, 0
  %26 = load i64, ptr %7, align 8
  br i1 %.not32, label %.lr.ph.split.us, label %.lr.ph.split

.lr.ph.split.us:                                  ; preds = %.lr.ph, %getBitMaskParity.exit.us
  %.035.us = phi i64 [ %50, %getBitMaskParity.exit.us ], [ %21, %.lr.ph ]
  %27 = getelementptr inbounds double, ptr %22, i64 %.035.us
  %28 = load double, ptr %27, align 8, !tbaa !4
  %29 = getelementptr inbounds double, ptr %23, i64 %.035.us
  %30 = load double, ptr %29, align 8, !tbaa !4
  %31 = add nsw i64 %24, %.035.us
  %32 = and i64 %26, %31
  %.not7.i.us = icmp eq i64 %32, 0
  br i1 %.not7.i.us, label %getBitMaskParity.exit.us, label %.lr.ph.i.us

.lr.ph.i.us:                                      ; preds = %.lr.ph.split.us, %.lr.ph.i.us
  %.09.i.us = phi i32 [ %33, %.lr.ph.i.us ], [ 0, %.lr.ph.split.us ]
  %.058.i.us = phi i64 [ %35, %.lr.ph.i.us ], [ %32, %.lr.ph.split.us ]
  %33 = xor i32 %.09.i.us, 1
  %34 = add nsw i64 %.058.i.us, -1
  %35 = and i64 %34, %.058.i.us
  %.not.i.us = icmp eq i64 %35, 0
  br i1 %.not.i.us, label %getBitMaskParity.exit.us.loopexit, label %.lr.ph.i.us

getBitMaskParity.exit.us.loopexit:                ; preds = %.lr.ph.i.us
  %36 = shl nuw nsw i32 %33, 1
  br label %getBitMaskParity.exit.us

getBitMaskParity.exit.us:                         ; preds = %getBitMaskParity.exit.us.loopexit, %.lr.ph.split.us
  %.0.lcssa.i.us = phi i32 [ 0, %.lr.ph.split.us ], [ %36, %getBitMaskParity.exit.us.loopexit ]
  %.neg.us = add nsw i32 %.0.lcssa.i.us, -1
  %37 = sub nsw i32 1, %.0.lcssa.i.us
  %38 = load double, ptr %8, align 8, !tbaa !4
  %39 = sitofp i32 %37 to double
  %40 = load double, ptr %9, align 8, !tbaa !4
  %41 = fmul double %40, %39
  %42 = fmul double %30, %41
  %43 = call double @llvm.fmuladd.f64(double %38, double %28, double %42)
  store double %43, ptr %27, align 8, !tbaa !4
  %44 = sitofp i32 %.neg.us to double
  %45 = load double, ptr %9, align 8, !tbaa !4
  %46 = fmul double %45, %44
  %47 = load double, ptr %8, align 8, !tbaa !4
  %48 = fmul double %30, %47
  %49 = call double @llvm.fmuladd.f64(double %46, double %28, double %48)
  store double %49, ptr %29, align 8, !tbaa !4
  %50 = add i64 %.035.us, 1
  %exitcond38.not = icmp eq i64 %.035.us, %20
  br i1 %exitcond38.not, label %._crit_edge, label %.lr.ph.split.us

.lr.ph.split:                                     ; preds = %.lr.ph, %76
  %.035 = phi i64 [ %77, %76 ], [ %21, %.lr.ph ]
  %51 = getelementptr inbounds double, ptr %22, i64 %.035
  %52 = load double, ptr %51, align 8, !tbaa !4
  %53 = getelementptr inbounds double, ptr %23, i64 %.035
  %54 = load double, ptr %53, align 8, !tbaa !4
  %55 = add nsw i64 %24, %.035
  %56 = and i64 %.fr, %55
  %.not33 = icmp eq i64 %56, %.fr
  br i1 %.not33, label %57, label %76

57:                                               ; preds = %.lr.ph.split
  %58 = and i64 %26, %55
  %.not7.i = icmp eq i64 %58, 0
  br i1 %.not7.i, label %getBitMaskParity.exit, label %.lr.ph.i

.lr.ph.i:                                         ; preds = %57, %.lr.ph.i
  %.09.i = phi i32 [ %59, %.lr.ph.i ], [ 0, %57 ]
  %.058.i = phi i64 [ %61, %.lr.ph.i ], [ %58, %57 ]
  %59 = xor i32 %.09.i, 1
  %60 = add nsw i64 %.058.i, -1
  %61 = and i64 %60, %.058.i
  %.not.i = icmp eq i64 %61, 0
  br i1 %.not.i, label %getBitMaskParity.exit.loopexit, label %.lr.ph.i

getBitMaskParity.exit.loopexit:                   ; preds = %.lr.ph.i
  %62 = shl nuw nsw i32 %59, 1
  br label %getBitMaskParity.exit

getBitMaskParity.exit:                            ; preds = %getBitMaskParity.exit.loopexit, %57
  %.0.lcssa.i = phi i32 [ 0, %57 ], [ %62, %getBitMaskParity.exit.loopexit ]
  %.neg = add nsw i32 %.0.lcssa.i, -1
  %63 = sub nsw i32 1, %.0.lcssa.i
  %64 = load double, ptr %8, align 8, !tbaa !4
  %65 = sitofp i32 %63 to double
  %66 = load double, ptr %9, align 8, !tbaa !4
  %67 = fmul double %66, %65
  %68 = fmul double %54, %67
  %69 = call double @llvm.fmuladd.f64(double %64, double %52, double %68)
  store double %69, ptr %51, align 8, !tbaa !4
  %70 = sitofp i32 %.neg to double
  %71 = load double, ptr %9, align 8, !tbaa !4
  %72 = fmul double %71, %70
  %73 = load double, ptr %8, align 8, !tbaa !4
  %74 = fmul double %54, %73
  %75 = call double @llvm.fmuladd.f64(double %72, double %52, double %74)
  store double %75, ptr %53, align 8, !tbaa !4
  br label %76

76:                                               ; preds = %.lr.ph.split, %getBitMaskParity.exit
  %77 = add i64 %.035, 1
  %exitcond.not = icmp eq i64 %.035, %20
  br i1 %exitcond.not, label %._crit_edge, label %.lr.ph.split

._crit_edge:                                      ; preds = %76, %getBitMaskParity.exit.us, %17
  call void @__kmpc_for_static_fini(ptr nonnull @1, i32 %.pre)
  call void @llvm.lifetime.end.p0(i64 4, ptr nonnull %14) #4
  call void @llvm.lifetime.end.p0(i64 8, ptr nonnull %13) #4
  call void @llvm.lifetime.end.p0(i64 8, ptr nonnull %12) #4
  call void @llvm.lifetime.end.p0(i64 8, ptr nonnull %11) #4
  br label %78

78:                                               ; preds = %._crit_edge, %10
  call void @__kmpc_barrier(ptr nonnull @2, i32 %.pre)
  ret void
}